; ModuleID = 'source-C-CXX/31/21.c'
source_filename = "source-C-CXX/31/21.c"
target datalayout = "e-m:e-p270:32:32-p271:32:32-p272:64:64-i64:64-f80:128-n8:16:32:64-S128"
target triple = "x86_64-pc-linux-gnu"

@.str = private unnamed_addr constant [3 x i8] c"%d\00", align 1
@.str.1 = private unnamed_addr constant [3 x i8] c"%s\00", align 1

; Function Attrs: nofree nounwind sspstrong uwtable
define dso_local i32 @main() local_unnamed_addr #0 {
  %1 = alloca [100 x [100 x i8]], align 16
  %2 = alloca [100 x [100 x i8]], align 16
  %3 = alloca [100 x [100 x i32]], align 16
  %4 = alloca i32, align 4
  %5 = getelementptr inbounds [100 x [100 x i8]], [100 x [100 x i8]]* %1, i64 0, i64 0, i64 0
  call void @llvm.lifetime.start.p0i8(i64 10000, i8* nonnull %5) #6
  call void @llvm.memset.p0i8.i64(i8* noundef nonnull align 16 dereferenceable(10000) %5, i8 0, i64 10000, i1 false)
  %6 = getelementptr inbounds [100 x [100 x i8]], [100 x [100 x i8]]* %2, i64 0, i64 0, i64 0
  call void @llvm.lifetime.start.p0i8(i64 10000, i8* nonnull %6) #6
  call void @llvm.memset.p0i8.i64(i8* noundef nonnull align 16 dereferenceable(10000) %6, i8 0, i64 10000, i1 false)
  %7 = bitcast [100 x [100 x i32]]* %3 to i8*
  call void @llvm.lifetime.start.p0i8(i64 40000, i8* nonnull %7) #6
  %8 = bitcast i32* %4 to i8*
  call void @llvm.lifetime.start.p0i8(i64 4, i8* nonnull %8) #6
  %9 = call i32 (i8*, ...) @__isoc99_scanf(i8* getelementptr inbounds ([3 x i8], [3 x i8]* @.str, i64 0, i64 0), i32* nonnull %4)
  %10 = load i32, i32* %4, align 4, !tbaa !5
  %11 = icmp sgt i32 %10, 0
  br i1 %11, label %12, label %22

12:                                               ; preds = %0, %12
  %13 = phi i64 [ %18, %12 ], [ 0, %0 ]
  %14 = getelementptr inbounds [100 x [100 x i8]], [100 x [100 x i8]]* %1, i64 0, i64 %13, i64 0
  %15 = call i32 (i8*, ...) @__isoc99_scanf(i8* getelementptr inbounds ([3 x i8], [3 x i8]* @.str.1, i64 0, i64 0), i8* nonnull %14)
  %16 = getelementptr inbounds [100 x [100 x i8]], [100 x [100 x i8]]* %2, i64 0, i64 %13, i64 0
  %17 = call i32 (i8*, ...) @__isoc99_scanf(i8* getelementptr inbounds ([3 x i8], [3 x i8]* @.str.1, i64 0, i64 0), i8* nonnull %16)
  %18 = add nuw nsw i64 %13, 1
  %19 = load i32, i32* %4, align 4, !tbaa !5
  %20 = sext i32 %19 to i64
  %21 = icmp slt i64 %18, %20
  br i1 %21, label %12, label %22, !llvm.loop !9

22:                                               ; preds = %12, %0
  %23 = call i32 @putchar(i32 10)
  %24 = load i32, i32* %4, align 4, !tbaa !5
  %25 = icmp sgt i32 %24, 0
  br i1 %25, label %26, label %82

26:                                               ; preds = %22, %76
  %27 = phi i64 [ %78, %76 ], [ 0, %22 ]
  %28 = getelementptr inbounds [100 x [100 x i8]], [100 x [100 x i8]]* %1, i64 0, i64 %27, i64 0
  %29 = call i64 @strlen(i8* noundef nonnull %28) #7
  %30 = trunc i64 %29 to i32
  %31 = icmp sgt i32 %30, 0
  br i1 %31, label %32, label %76

32:                                               ; preds = %26
  %33 = getelementptr inbounds [100 x [100 x i8]], [100 x [100 x i8]]* %2, i64 0, i64 %27, i64 0
  %34 = call i64 @strlen(i8* noundef nonnull %33) #7
  %35 = trunc i64 %34 to i32
  %36 = shl i64 %29, 32
  %37 = ashr exact i64 %36, 32
  br label %41

38:                                               ; preds = %67
  br i1 %31, label %39, label %76

39:                                               ; preds = %38
  %40 = and i64 %29, 4294967295
  br label %69

41:                                               ; preds = %32, %67
  %42 = phi i64 [ %37, %32 ], [ %45, %67 ]
  %43 = phi i32 [ %35, %32 ], [ %44, %67 ]
  %44 = add nsw i32 %43, -1
  %45 = add nsw i64 %42, -1
  %46 = icmp sgt i32 %43, 0
  %47 = getelementptr inbounds [100 x [100 x i8]], [100 x [100 x i8]]* %1, i64 0, i64 %27, i64 %45
  %48 = load i8, i8* %47, align 1, !tbaa !11
  %49 = sext i8 %48 to i32
  br i1 %46, label %50, label %64

50:                                               ; preds = %41
  %51 = zext i32 %44 to i64
  %52 = getelementptr inbounds [100 x [100 x i8]], [100 x [100 x i8]]* %2, i64 0, i64 %27, i64 %51
  %53 = load i8, i8* %52, align 1, !tbaa !11
  %54 = sext i8 %53 to i32
  %55 = sub nsw i32 %49, %54
  %56 = getelementptr inbounds [100 x [100 x i32]], [100 x [100 x i32]]* %3, i64 0, i64 %27, i64 %45
  store i32 %55, i32* %56, align 4, !tbaa !5
  %57 = icmp slt i32 %55, 0
  br i1 %57, label %58, label %67

58:                                               ; preds = %50
  %59 = add nsw i32 %55, 10
  store i32 %59, i32* %56, align 4, !tbaa !5
  %60 = add nsw i64 %42, -2
  %61 = getelementptr inbounds [100 x [100 x i8]], [100 x [100 x i8]]* %1, i64 0, i64 %27, i64 %60
  %62 = load i8, i8* %61, align 1, !tbaa !11
  %63 = add i8 %62, -1
  store i8 %63, i8* %61, align 1, !tbaa !11
  br label %67

64:                                               ; preds = %41
  %65 = add nsw i32 %49, -48
  %66 = getelementptr inbounds [100 x [100 x i32]], [100 x [100 x i32]]* %3, i64 0, i64 %27, i64 %45
  store i32 %65, i32* %66, align 4, !tbaa !5
  br label %67

67:                                               ; preds = %64, %58, %50
  %68 = icmp sgt i64 %42, 1
  br i1 %68, label %41, label %38, !llvm.loop !12

69:                                               ; preds = %39, %69
  %70 = phi i64 [ 0, %39 ], [ %74, %69 ]
  %71 = getelementptr inbounds [100 x [100 x i32]], [100 x [100 x i32]]* %3, i64 0, i64 %27, i64 %70
  %72 = load i32, i32* %71, align 4, !tbaa !5
  %73 = call i32 (i8*, ...) @printf(i8* nonnull dereferenceable(1) getelementptr inbounds ([3 x i8], [3 x i8]* @.str, i64 0, i64 0), i32 %72)
  %74 = add nuw nsw i64 %70, 1
  %75 = icmp eq i64 %74, %40
  br i1 %75, label %76, label %69, !llvm.loop !13

76:                                               ; preds = %69, %26, %38
  %77 = call i32 @putchar(i32 10)
  %78 = add nuw nsw i64 %27, 1
  %79 = load i32, i32* %4, align 4, !tbaa !5
  %80 = sext i32 %79 to i64
  %81 = icmp slt i64 %78, %80
  br i1 %81, label %26, label %82, !llvm.loop !14

82:                                               ; preds = %76, %22
  call void @llvm.lifetime.end.p0i8(i64 4, i8* nonnull %8) #6
  call void @llvm.lifetime.end.p0i8(i64 40000, i8* nonnull %7) #6
  call void @llvm.lifetime.end.p0i8(i64 10000, i8* nonnull %6) #6
  call void @llvm.lifetime.end.p0i8(i64 10000, i8* nonnull %5) #6
  ret i32 0
}

; Function Attrs: argmemonly mustprogress nofree nosync nounwind willreturn
declare void @llvm.lifetime.start.p0i8(i64 immarg, i8* nocapture) #1

; Function Attrs: argmemonly mustprogress nofree nounwind willreturn writeonly
declare void @llvm.memset.p0i8.i64(i8* nocapture writeonly, i8, i64, i1 immarg) #2

; Function Attrs: nofree nounwind
declare noundef i32 @__isoc99_scanf(i8* nocapture noundef readonly, ...) local_unnamed_addr #3

; Function Attrs: nofree nounwind
declare noundef i32 @printf(i8* nocapture noundef readonly, ...) local_unnamed_addr #3

; Function Attrs: argmemonly mustprogress nofree nounwind readonly willreturn
declare i64 @strlen(i8* nocapture) local_unnamed_addr #4

; Function Attrs: argmemonly mustprogress nofree nosync nounwind willreturn
declare void @llvm.lifetime.end.p0i8(i64 immarg, i8* nocapture) #1

; Function Attrs: nofree nounwind
declare noundef i32 @putchar(i32 noundef) local_unnamed_addr #5


!llvm.module.flags = !{!0, !1, !2, !3}
!llvm.ident = !{!4}

!0 = !{i32 1, !"wchar_size", i32 4}
!1 = !{i32 7, !"PIC Level", i32 2}
!2 = !{i32 7, !"PIE Level", i32 2}
!3 = !{i32 7, !"uwtable", i32 1}
!4 = !{!"clang version 13.0.0"}
!5 = !{!6, !6, i64 0}
!6 = !{!"int", !7, i64 0}
!7 = !{!"omnipotent char", !8, i64 0}
!8 = !{!"Simple C/C++ TBAA"}
!9 = distinct !{!9, !10}
!10 = !{!"llvm.loop.mustprogress"}
!11 = !{!7, !7, i64 0}
!12 = distinct !{!12, !10}
!13 = distinct !{!13, !10}
!14 = distinct !{!14, !10}
